; ModuleID = 'source-C-CXX/12/371.c'
source_filename = "source-C-CXX/12/371.c"
target datalayout = "e-m:e-p270:32:32-p271:32:32-p272:64:64-i64:64-f80:128-n8:16:32:64-S128"
target triple = "x86_64-pc-linux-gnu"

%struct._IO_FILE = type { i32, i8*, i8*, i8*, i8*, i8*, i8*, i8*, i8*, i8*, i8*, i8*, %struct._IO_marker*, %struct._IO_FILE*, i32, i32, i64, i16, i8, [1 x i8], i8*, i64, %struct._IO_codecvt*, %struct._IO_wide_data*, %struct._IO_FILE*, i8*, i64, i32, [20 x i8] }
%struct._IO_marker = type opaque
%struct._IO_codecvt = type opaque
%struct._IO_wide_data = type opaque

@.str = private unnamed_addr constant [3 x i8] c"%d\00", align 1
@.str.1 = private unnamed_addr constant [4 x i8] c" %d\00", align 1
@stdin = external local_unnamed_addr global %struct._IO_FILE*, align 8

; Function Attrs: nofree nounwind sspstrong uwtable
define dso_local i32 @main() local_unnamed_addr #0 {
  %1 = alloca i32, align 4
  %2 = bitcast i32* %1 to i8*
  call void @llvm.lifetime.start.p0i8(i64 4, i8* nonnull %2) #5
  %3 = call i32 (i8*, ...) @__isoc99_scanf(i8* getelementptr inbounds ([3 x i8], [3 x i8]* @.str, i64 0, i64 0), i32* nonnull %1)
  %4 = load i32, i32* %1, align 4, !tbaa !5
  %5 = zext i32 %4 to i64
  %6 = call i8* @llvm.stacksave()
  %7 = alloca i32, i64 %5, align 16
  %8 = load i32, i32* %1, align 4, !tbaa !5
  %9 = icmp sgt i32 %8, 0
  br i1 %9, label %10, label %20

10:                                               ; preds = %0, %10
  %11 = phi i64 [ %14, %10 ], [ 0, %0 ]
  %12 = getelementptr inbounds i32, i32* %7, i64 %11
  %13 = call i32 (i8*, ...) @__isoc99_scanf(i8* getelementptr inbounds ([3 x i8], [3 x i8]* @.str, i64 0, i64 0), i32* nonnull %12)
  %14 = add nuw nsw i64 %11, 1
  %15 = load i32, i32* %1, align 4, !tbaa !5
  %16 = sext i32 %15 to i64
  %17 = icmp slt i64 %14, %16
  br i1 %17, label %10, label %18, !llvm.loop !9

18:                                               ; preds = %10
  %19 = load i32, i32* %7, align 16, !tbaa !5
  br label %20

20:                                               ; preds = %18, %0
  %21 = phi i32 [ %19, %18 ], [ undef, %0 ]
  %22 = call i32 (i8*, ...) @printf(i8* nonnull dereferenceable(1) getelementptr inbounds ([3 x i8], [3 x i8]* @.str, i64 0, i64 0), i32 %21)
  %23 = load i32, i32* %1, align 4, !tbaa !5
  %24 = icmp sgt i32 %23, 1
  br i1 %24, label %25, label %131

25:                                               ; preds = %20, %125
  %26 = phi i64 [ %130, %125 ], [ 0, %20 ]
  %27 = phi i32 [ %126, %125 ], [ %23, %20 ]
  %28 = phi i64 [ %127, %125 ], [ 1, %20 ]
  %29 = add i64 %26, -7
  %30 = lshr i64 %29, 3
  %31 = add nuw nsw i64 %30, 1
  %32 = add i64 %26, 1
  %33 = getelementptr inbounds i32, i32* %7, i64 %28
  %34 = load i32, i32* %33, align 4, !tbaa !5
  %35 = icmp ult i64 %32, 8
  br i1 %35, label %105, label %36

36:                                               ; preds = %25
  %37 = and i64 %32, -8
  %38 = insertelement <4 x i32> poison, i32 %34, i32 0
  %39 = shufflevector <4 x i32> %38, <4 x i32> poison, <4 x i32> zeroinitializer
  %40 = insertelement <4 x i32> poison, i32 %34, i32 0
  %41 = shufflevector <4 x i32> %40, <4 x i32> poison, <4 x i32> zeroinitializer
  %42 = and i64 %31, 1
  %43 = icmp ult i64 %29, 8
  br i1 %43, label %79, label %44

44:                                               ; preds = %36
  %45 = and i64 %31, 4611686018427387902
  br label %46

46:                                               ; preds = %46, %44
  %47 = phi i64 [ 0, %44 ], [ %76, %46 ]
  %48 = phi <4 x i32> [ zeroinitializer, %44 ], [ %74, %46 ]
  %49 = phi <4 x i32> [ zeroinitializer, %44 ], [ %75, %46 ]
  %50 = phi i64 [ %45, %44 ], [ %77, %46 ]
  %51 = getelementptr inbounds i32, i32* %7, i64 %47
  %52 = bitcast i32* %51 to <4 x i32>*
  %53 = load <4 x i32>, <4 x i32>* %52, align 16, !tbaa !5
  %54 = getelementptr inbounds i32, i32* %51, i64 4
  %55 = bitcast i32* %54 to <4 x i32>*
  %56 = load <4 x i32>, <4 x i32>* %55, align 16, !tbaa !5
  %57 = icmp ne <4 x i32> %53, %39
  %58 = icmp ne <4 x i32> %56, %41
  %59 = zext <4 x i1> %57 to <4 x i32>
  %60 = zext <4 x i1> %58 to <4 x i32>
  %61 = add <4 x i32> %48, %59
  %62 = add <4 x i32> %49, %60
  %63 = or i64 %47, 8
  %64 = getelementptr inbounds i32, i32* %7, i64 %63
  %65 = bitcast i32* %64 to <4 x i32>*
  %66 = load <4 x i32>, <4 x i32>* %65, align 16, !tbaa !5
  %67 = getelementptr inbounds i32, i32* %64, i64 4
  %68 = bitcast i32* %67 to <4 x i32>*
  %69 = load <4 x i32>, <4 x i32>* %68, align 16, !tbaa !5
  %70 = icmp ne <4 x i32> %66, %39
  %71 = icmp ne <4 x i32> %69, %41
  %72 = zext <4 x i1> %70 to <4 x i32>
  %73 = zext <4 x i1> %71 to <4 x i32>
  %74 = add <4 x i32> %61, %72
  %75 = add <4 x i32> %62, %73
  %76 = add nuw i64 %47, 16
  %77 = add i64 %50, -2
  %78 = icmp eq i64 %77, 0
  br i1 %78, label %79, label %46, !llvm.loop !11

79:                                               ; preds = %46, %36
  %80 = phi <4 x i32> [ undef, %36 ], [ %74, %46 ]
  %81 = phi <4 x i32> [ undef, %36 ], [ %75, %46 ]
  %82 = phi i64 [ 0, %36 ], [ %76, %46 ]
  %83 = phi <4 x i32> [ zeroinitializer, %36 ], [ %74, %46 ]
  %84 = phi <4 x i32> [ zeroinitializer, %36 ], [ %75, %46 ]
  %85 = icmp eq i64 %42, 0
  br i1 %85, label %99, label %86

86:                                               ; preds = %79
  %87 = getelementptr inbounds i32, i32* %7, i64 %82
  %88 = getelementptr inbounds i32, i32* %87, i64 4
  %89 = bitcast i32* %88 to <4 x i32>*
  %90 = load <4 x i32>, <4 x i32>* %89, align 16, !tbaa !5
  %91 = icmp ne <4 x i32> %90, %41
  %92 = zext <4 x i1> %91 to <4 x i32>
  %93 = add <4 x i32> %84, %92
  %94 = bitcast i32* %87 to <4 x i32>*
  %95 = load <4 x i32>, <4 x i32>* %94, align 16, !tbaa !5
  %96 = icmp ne <4 x i32> %95, %39
  %97 = zext <4 x i1> %96 to <4 x i32>
  %98 = add <4 x i32> %83, %97
  br label %99

99:                                               ; preds = %79, %86
  %100 = phi <4 x i32> [ %80, %79 ], [ %98, %86 ]
  %101 = phi <4 x i32> [ %81, %79 ], [ %93, %86 ]
  %102 = add <4 x i32> %101, %100
  %103 = call i32 @llvm.vector.reduce.add.v4i32(<4 x i32> %102)
  %104 = icmp eq i64 %32, %37
  br i1 %104, label %118, label %105

105:                                              ; preds = %25, %99
  %106 = phi i64 [ 0, %25 ], [ %37, %99 ]
  %107 = phi i32 [ 0, %25 ], [ %103, %99 ]
  br label %108

108:                                              ; preds = %105, %108
  %109 = phi i64 [ %116, %108 ], [ %106, %105 ]
  %110 = phi i32 [ %115, %108 ], [ %107, %105 ]
  %111 = getelementptr inbounds i32, i32* %7, i64 %109
  %112 = load i32, i32* %111, align 4, !tbaa !5
  %113 = icmp ne i32 %112, %34
  %114 = zext i1 %113 to i32
  %115 = add nuw nsw i32 %110, %114
  %116 = add nuw nsw i64 %109, 1
  %117 = icmp eq i64 %116, %28
  br i1 %117, label %118, label %108, !llvm.loop !13

118:                                              ; preds = %108, %99
  %119 = phi i32 [ %103, %99 ], [ %115, %108 ]
  %120 = zext i32 %119 to i64
  %121 = icmp eq i64 %28, %120
  br i1 %121, label %122, label %125

122:                                              ; preds = %118
  %123 = call i32 (i8*, ...) @printf(i8* nonnull dereferenceable(1) getelementptr inbounds ([4 x i8], [4 x i8]* @.str.1, i64 0, i64 0), i32 %34)
  %124 = load i32, i32* %1, align 4, !tbaa !5
  br label %125

125:                                              ; preds = %122, %118
  %126 = phi i32 [ %124, %122 ], [ %27, %118 ]
  %127 = add nuw nsw i64 %28, 1
  %128 = sext i32 %126 to i64
  %129 = icmp slt i64 %127, %128
  %130 = add i64 %26, 1
  br i1 %129, label %25, label %131, !llvm.loop !15

131:                                              ; preds = %125, %20
  %132 = load %struct._IO_FILE*, %struct._IO_FILE** @stdin, align 8, !tbaa !16
  %133 = call i32 @getc(%struct._IO_FILE* %132) #5
  %134 = load %struct._IO_FILE*, %struct._IO_FILE** @stdin, align 8, !tbaa !16
  %135 = call i32 @getc(%struct._IO_FILE* %134) #5
  call void @llvm.stackrestore(i8* %6)
  call void @llvm.lifetime.end.p0i8(i64 4, i8* nonnull %2) #5
  ret i32 0
}

; Function Attrs: argmemonly mustprogress nofree nosync nounwind willreturn
declare void @llvm.lifetime.start.p0i8(i64 immarg, i8* nocapture) #1

; Function Attrs: nofree nounwind
declare noundef i32 @__isoc99_scanf(i8* nocapture noundef readonly, ...) local_unnamed_addr #2

; Function Attrs: mustprogress nofree nosync nounwind willreturn
declare i8* @llvm.stacksave() #3

; Function Attrs: nofree nounwind
declare noundef i32 @printf(i8* nocapture noundef readonly, ...) local_unnamed_addr #2

; Function Attrs: mustprogress nofree nosync nounwind willreturn
declare void @llvm.stackrestore(i8*) #3

; Function Attrs: argmemonly mustprogress nofree nosync nounwind willreturn
declare void @llvm.lifetime.end.p0i8(i64 immarg, i8* nocapture) #1

; Function Attrs: nofree nounwind
declare noundef i32 @getc(%struct._IO_FILE* nocapture noundef) local_unnamed_addr #2

; Function Attrs: nofree nosync nounwind readnone willreturn
declare i32 @llvm.vector.reduce.add.v4i32(<4 x i32>) #4


!llvm.module.flags = !{!0, !1, !2, !3}
!llvm.ident = !{!4}

!0 = !{i32 1, !"wchar_size", i32 4}
!1 = !{i32 7, !"PIC Level", i32 2}
!2 = !{i32 7, !"PIE Level", i32 2}
!3 = !{i32 7, !"uwtable", i32 1}
!4 = !{!"clang version 13.0.0"}
!5 = !{!6, !6, i64 0}
!6 = !{!"int", !7, i64 0}
!7 = !{!"omnipotent char", !8, i64 0}
!8 = !{!"Simple C/C++ TBAA"}
!9 = distinct !{!9, !10}
!10 = !{!"llvm.loop.mustprogress"}
!11 = distinct !{!11, !10, !12}
!12 = !{!"llvm.loop.isvectorized", i32 1}
!13 = distinct !{!13, !10, !14, !12}
!14 = !{!"llvm.loop.unroll.runtime.disable"}
!15 = distinct !{!15, !10}
!16 = !{!17, !17, i64 0}
!17 = !{!"any pointer", !7, i64 0}
